(lp1
S'Sun Oct 29 03:10:43 2023::uryjuys@xztspvskhb.org::1698520243-7-10'
p2
aS'Sun Mar  1 19:38:04 1987::nwuf@iigosd.gov::541597084-4-6'
p3
aS'Fri Dec 23 09:14:59 2022::uyjiww@cahxejyprcbd.com::1671758099-6-12'
p4
aS'Fri Sep 29 07:49:16 1978::clfos@jecjh.edu::275874556-5-5'
p5
aS'Sat Apr 17 09:00:54 1993::twdovm@vnqrii.net::735008454-6-6'
p6
aS'Tue Nov 26 06:29:31 2030::izmpqdm@jtfvbqxph.gov::1921876171-7-9'
p7
aS'Sat Sep  8 10:54:32 1979::hldq@avqgk.org::305607272-4-5'
p8
aS'Wed Apr  2 02:36:50 2014::aqnm@mrncskb.gov::1396377410-4-7'
p9
a.